---
triple:          'arm64-apple-darwin'
binary-path:     '/Users/shantanuchatterjee/Git_Folder/Codeforces-Problem_Solution-repo/output/DifferentString'
relocations:
  - { offsetInCU: 0x48E2, offset: 0x48E2, size: 0x8, addend: 0x0, symName: __ZNSt3__124__put_character_sequenceB8ue170006IcNS_11char_traitsIcEEEERNS_13basic_ostreamIT_T0_EES7_PKS4_m, symObjAddr: 0x2580, symBinAddr: 0x10000663C, symSize: 0x1F4 }
  - { offsetInCU: 0x6D17, offset: 0x6D17, size: 0x8, addend: 0x0, symName: __ZNSt3__14swapB8ue170006IcEEvRT_S2_, symObjAddr: 0x358, symBinAddr: 0x100004414, symSize: 0x3C }
  - { offsetInCU: 0x6D68, offset: 0x6D68, size: 0x8, addend: 0x0, symName: __ZNSt3__1lsB8ue170006IcNS_11char_traitsIcEENS_9allocatorIcEEEERNS_13basic_ostreamIT_T0_EES9_RKNS_12basic_stringIS6_S7_T1_EE, symObjAddr: 0x394, symBinAddr: 0x100004450, symSize: 0x4C }
  - { offsetInCU: 0x6DC0, offset: 0x6DC0, size: 0x8, addend: 0x0, symName: __ZNSt3__1lsB8ue170006INS_11char_traitsIcEEEERNS_13basic_ostreamIcT_EES6_PKc, symObjAddr: 0x3E0, symBinAddr: 0x10000449C, symSize: 0x48 }
  - { offsetInCU: 0x6E06, offset: 0x6E06, size: 0x8, addend: 0x0, symName: __ZNSt3__14endlB8ue170006IcNS_11char_traitsIcEEEERNS_13basic_ostreamIT_T0_EES7_, symObjAddr: 0x454, symBinAddr: 0x100004510, symSize: 0x58 }
  - { offsetInCU: 0x6E46, offset: 0x6E46, size: 0x8, addend: 0x0, symName: __ZNSt3__1rsB8ue170006IcNS_11char_traitsIcEENS_9allocatorIcEEEERNS_13basic_istreamIT_T0_EES9_RNS_12basic_stringIS6_S7_T1_EE, symObjAddr: 0x5FC, symBinAddr: 0x1000046B8, symSize: 0x314 }
  - { offsetInCU: 0x6F46, offset: 0x6F46, size: 0x8, addend: 0x0, symName: __ZNSt3__130__libcpp_is_constant_evaluatedB8ue170006Ev, symObjAddr: 0xF0C, symBinAddr: 0x100004FC8, symSize: 0xC }
  - { offsetInCU: 0x6F63, offset: 0x6F63, size: 0x8, addend: 0x0, symName: __ZNSt3__119__libcpp_deallocateB8ue170006EPvmm, symObjAddr: 0xF18, symBinAddr: 0x100004FD4, symSize: 0x30 }
  - { offsetInCU: 0x6FAB, offset: 0x6FAB, size: 0x8, addend: 0x0, symName: __ZNSt3__127__do_deallocate_handle_sizeB8ue170006IJEEEvPvmDpT_, symObjAddr: 0xF48, symBinAddr: 0x100005004, symSize: 0x28 }
  - { offsetInCU: 0x6FE9, offset: 0x6FE9, size: 0x8, addend: 0x0, symName: __ZNSt3__124__libcpp_operator_deleteB8ue170006IJPvEEEvDpT_, symObjAddr: 0xF70, symBinAddr: 0x10000502C, symSize: 0x24 }
  - { offsetInCU: 0x706F, offset: 0x706F, size: 0x8, addend: 0x0, symName: __ZNSt3__117__libcpp_allocateB8ue170006Emm, symObjAddr: 0x1AA4, symBinAddr: 0x100005B60, symSize: 0x28 }
  - { offsetInCU: 0x70AC, offset: 0x70AC, size: 0x8, addend: 0x0, symName: __ZNSt3__121__libcpp_operator_newB8ue170006IJmEEEPvDpT_, symObjAddr: 0x1AE0, symBinAddr: 0x100005B9C, symSize: 0x24 }
  - { offsetInCU: 0x70E5, offset: 0x70E5, size: 0x8, addend: 0x0, symName: __ZNSt3__127__tree_balance_after_insertB8ue170006IPNS_16__tree_node_baseIPvEEEEvT_S5_, symObjAddr: 0x1D00, symBinAddr: 0x100005DBC, symSize: 0x340 }
  - { offsetInCU: 0x7159, offset: 0x7159, size: 0x8, addend: 0x0, symName: __ZNSt3__120__tree_is_left_childB8ue170006IPNS_16__tree_node_baseIPvEEEEbT_, symObjAddr: 0x2080, symBinAddr: 0x10000613C, symSize: 0x2C }
  - { offsetInCU: 0x718E, offset: 0x718E, size: 0x8, addend: 0x0, symName: __ZNSt3__118__tree_left_rotateB8ue170006IPNS_16__tree_node_baseIPvEEEEvT_, symObjAddr: 0x20AC, symBinAddr: 0x100006168, symSize: 0xEC }
  - { offsetInCU: 0x71D0, offset: 0x71D0, size: 0x8, addend: 0x0, symName: __ZNSt3__119__tree_right_rotateB8ue170006IPNS_16__tree_node_baseIPvEEEEvT_, symObjAddr: 0x2198, symBinAddr: 0x100006254, symSize: 0xCC }
  - { offsetInCU: 0x7212, offset: 0x7212, size: 0x8, addend: 0x0, symName: __ZNSt3__116__pad_and_outputB8ue170006IcNS_11char_traitsIcEEEENS_19ostreambuf_iteratorIT_T0_EES6_PKS4_S8_S8_RNS_8ios_baseES4_, symObjAddr: 0x27D8, symBinAddr: 0x100006894, symSize: 0x248 }
  - { offsetInCU: 0x72E1, offset: 0x72E1, size: 0x8, addend: 0x0, symName: __ZNSt3__112__to_addressB8ue170006IKcEEPT_S3_, symObjAddr: 0x2D48, symBinAddr: 0x100006E04, symSize: 0x14 }
  - { offsetInCU: 0x7349, offset: 0x7349, size: 0x8, addend: 0x0, symName: __ZNSt3__19use_facetB8ue170006INS_5ctypeIcEEEERKT_RKNS_6localeE, symObjAddr: 0x2F74, symBinAddr: 0x100007030, symSize: 0x2C }
  - { offsetInCU: 0x7727, offset: 0x7727, size: 0x8, addend: 0x0, symName: __ZNSt3__118__constexpr_strlenB8ue170006EPKc, symObjAddr: 0x300C, symBinAddr: 0x1000070C8, symSize: 0x24 }
  - { offsetInCU: 0x80E9, offset: 0x80E9, size: 0x8, addend: 0x0, symName: __ZSt28__throw_bad_array_new_lengthB8ue170006v, symObjAddr: 0x1A70, symBinAddr: 0x100005B2C, symSize: 0x34 }
  - { offsetInCU: 0xA9D6, offset: 0xA9D6, size: 0x8, addend: 0x0, symName: __Z10diffStringNSt3__112basic_stringIcNS_11char_traitsIcEENS_9allocatorIcEEEE, symObjAddr: 0x0, symBinAddr: 0x1000040BC, symSize: 0x234 }
  - { offsetInCU: 0xAAA6, offset: 0xAAA6, size: 0x8, addend: 0x0, symName: __ZNSt3__13setIcNS_4lessIcEENS_9allocatorIcEEEC1B8ue170006Ev, symObjAddr: 0x234, symBinAddr: 0x1000042F0, symSize: 0x2C }
  - { offsetInCU: 0xAACF, offset: 0xAACF, size: 0x8, addend: 0x0, symName: __ZNKSt3__112basic_stringIcNS_11char_traitsIcEENS_9allocatorIcEEE4sizeB8ue170006Ev, symObjAddr: 0x260, symBinAddr: 0x10000431C, symSize: 0x54 }
  - { offsetInCU: 0xAAF5, offset: 0xAAF5, size: 0x8, addend: 0x0, symName: __ZNSt3__13setIcNS_4lessIcEENS_9allocatorIcEEE6insertB8ue170006ERKc, symObjAddr: 0x2B4, symBinAddr: 0x100004370, symSize: 0x4C }
  - { offsetInCU: 0xAB2A, offset: 0xAB2A, size: 0x8, addend: 0x0, symName: __ZNSt3__112basic_stringIcNS_11char_traitsIcEENS_9allocatorIcEEEixB8ue170006Em, symObjAddr: 0x300, symBinAddr: 0x1000043BC, symSize: 0x30 }
  - { offsetInCU: 0xAB5F, offset: 0xAB5F, size: 0x8, addend: 0x0, symName: __ZNKSt3__13setIcNS_4lessIcEENS_9allocatorIcEEE4sizeB8ue170006Ev, symObjAddr: 0x330, symBinAddr: 0x1000043EC, symSize: 0x28 }
  - { offsetInCU: 0xAB85, offset: 0xAB85, size: 0x8, addend: 0x0, symName: __ZNSt3__113basic_ostreamIcNS_11char_traitsIcEEElsB8ue170006EPFRS3_S4_E, symObjAddr: 0x428, symBinAddr: 0x1000044E4, symSize: 0x2C }
  - { offsetInCU: 0xABB9, offset: 0xABB9, size: 0x8, addend: 0x0, symName: __ZNSt3__13setIcNS_4lessIcEENS_9allocatorIcEEED1B8ue170006Ev, symObjAddr: 0x4AC, symBinAddr: 0x100004568, symSize: 0x2C }
  - { offsetInCU: 0xABE2, offset: 0xABE2, size: 0x8, addend: 0x0, symName: _main, symObjAddr: 0x4E4, symBinAddr: 0x1000045A0, symSize: 0xEC }
  - { offsetInCU: 0xAC1F, offset: 0xAC1F, size: 0x8, addend: 0x0, symName: __ZNSt3__112basic_stringIcNS_11char_traitsIcEENS_9allocatorIcEEEC1B8ue170006Ev, symObjAddr: 0x5D0, symBinAddr: 0x10000468C, symSize: 0x2C }
  - { offsetInCU: 0xAC48, offset: 0xAC48, size: 0x8, addend: 0x0, symName: __ZNSt3__13setIcNS_4lessIcEENS_9allocatorIcEEEC2B8ue170006Ev, symObjAddr: 0x910, symBinAddr: 0x1000049CC, symSize: 0x30 }
  - { offsetInCU: 0xAC71, offset: 0xAC71, size: 0x8, addend: 0x0, symName: __ZNSt3__16__treeIcNS_4lessIcEENS_9allocatorIcEEEC1ERKS2_, symObjAddr: 0x940, symBinAddr: 0x1000049FC, symSize: 0x34 }
  - { offsetInCU: 0xACAC, offset: 0xACAC, size: 0x8, addend: 0x0, symName: __ZNSt3__16__treeIcNS_4lessIcEENS_9allocatorIcEEEC2ERKS2_, symObjAddr: 0x974, symBinAddr: 0x100004A30, symSize: 0x70 }
  - { offsetInCU: 0xACE7, offset: 0xACE7, size: 0x8, addend: 0x0, symName: __ZNSt3__117__compressed_pairINS_15__tree_end_nodeIPNS_16__tree_node_baseIPvEEEENS_9allocatorINS_11__tree_nodeIcS3_EEEEEC1B8ue170006ILb1EvEEv, symObjAddr: 0x9E4, symBinAddr: 0x100004AA0, symSize: 0x2C }
  - { offsetInCU: 0xAD20, offset: 0xAD20, size: 0x8, addend: 0x0, symName: __ZNSt3__117__compressed_pairImNS_4lessIcEEEC1B8ue170006IiRKS2_EEOT_OT0_, symObjAddr: 0xA10, symBinAddr: 0x100004ACC, symSize: 0x3C }
  - { offsetInCU: 0xAD77, offset: 0xAD77, size: 0x8, addend: 0x0, symName: __ZNSt3__16__treeIcNS_4lessIcEENS_9allocatorIcEEE10__end_nodeB8ue170006Ev, symObjAddr: 0xA4C, symBinAddr: 0x100004B08, symSize: 0x2C }
  - { offsetInCU: 0xAD9D, offset: 0xAD9D, size: 0x8, addend: 0x0, symName: __ZNSt3__16__treeIcNS_4lessIcEENS_9allocatorIcEEE12__begin_nodeB8ue170006Ev, symObjAddr: 0xA78, symBinAddr: 0x100004B34, symSize: 0x14 }
  - { offsetInCU: 0xADC3, offset: 0xADC3, size: 0x8, addend: 0x0, symName: __ZNSt3__117__compressed_pairINS_15__tree_end_nodeIPNS_16__tree_node_baseIPvEEEENS_9allocatorINS_11__tree_nodeIcS3_EEEEEC2B8ue170006ILb1EvEEv, symObjAddr: 0xA8C, symBinAddr: 0x100004B48, symSize: 0x34 }
  - { offsetInCU: 0xADF7, offset: 0xADF7, size: 0x8, addend: 0x0, symName: __ZNSt3__122__compressed_pair_elemINS_15__tree_end_nodeIPNS_16__tree_node_baseIPvEEEELi0ELb0EEC2B8ue170006ENS_16__value_init_tagE, symObjAddr: 0xAC0, symBinAddr: 0x100004B7C, symSize: 0x2C }
  - { offsetInCU: 0xAE2B, offset: 0xAE2B, size: 0x8, addend: 0x0, symName: __ZNSt3__122__compressed_pair_elemINS_9allocatorINS_11__tree_nodeIcPvEEEELi1ELb1EEC2B8ue170006ENS_16__value_init_tagE, symObjAddr: 0xAEC, symBinAddr: 0x100004BA8, symSize: 0x2C }
  - { offsetInCU: 0xAE5F, offset: 0xAE5F, size: 0x8, addend: 0x0, symName: __ZNSt3__115__tree_end_nodeIPNS_16__tree_node_baseIPvEEEC1B8ue170006Ev, symObjAddr: 0xB18, symBinAddr: 0x100004BD4, symSize: 0x2C }
  - { offsetInCU: 0xAE88, offset: 0xAE88, size: 0x8, addend: 0x0, symName: __ZNSt3__115__tree_end_nodeIPNS_16__tree_node_baseIPvEEEC2B8ue170006Ev, symObjAddr: 0xB44, symBinAddr: 0x100004C00, symSize: 0x18 }
  - { offsetInCU: 0xAEB2, offset: 0xAEB2, size: 0x8, addend: 0x0, symName: __ZNSt3__19allocatorINS_11__tree_nodeIcPvEEEC2B8ue170006Ev, symObjAddr: 0xB5C, symBinAddr: 0x100004C18, symSize: 0x2C }
  - { offsetInCU: 0xAEDB, offset: 0xAEDB, size: 0x8, addend: 0x0, symName: __ZNSt3__116__non_trivial_ifILb1ENS_9allocatorINS_11__tree_nodeIcPvEEEEEC2B8ue170006Ev, symObjAddr: 0xB88, symBinAddr: 0x100004C44, symSize: 0x14 }
  - { offsetInCU: 0xAF05, offset: 0xAF05, size: 0x8, addend: 0x0, symName: __ZNSt3__117__compressed_pairImNS_4lessIcEEEC2B8ue170006IiRKS2_EEOT_OT0_, symObjAddr: 0xB9C, symBinAddr: 0x100004C58, symSize: 0x44 }
  - { offsetInCU: 0xAF5C, offset: 0xAF5C, size: 0x8, addend: 0x0, symName: __ZNSt3__122__compressed_pair_elemImLi0ELb0EEC2B8ue170006IivEEOT_, symObjAddr: 0xBE0, symBinAddr: 0x100004C9C, symSize: 0x24 }
  - { offsetInCU: 0xAF9E, offset: 0xAF9E, size: 0x8, addend: 0x0, symName: __ZNSt3__122__compressed_pair_elemINS_4lessIcEELi1ELb1EEC2B8ue170006IRKS2_vEEOT_, symObjAddr: 0xC04, symBinAddr: 0x100004CC0, symSize: 0x18 }
  - { offsetInCU: 0xAFE0, offset: 0xAFE0, size: 0x8, addend: 0x0, symName: __ZNSt3__114pointer_traitsIPNS_15__tree_end_nodeIPNS_16__tree_node_baseIPvEEEEE10pointer_toB8ue170006ERS6_, symObjAddr: 0xC1C, symBinAddr: 0x100004CD8, symSize: 0x14 }
  - { offsetInCU: 0xB003, offset: 0xB003, size: 0x8, addend: 0x0, symName: __ZNSt3__117__compressed_pairINS_15__tree_end_nodeIPNS_16__tree_node_baseIPvEEEENS_9allocatorINS_11__tree_nodeIcS3_EEEEE5firstB8ue170006Ev, symObjAddr: 0xC30, symBinAddr: 0x100004CEC, symSize: 0x24 }
  - { offsetInCU: 0xB029, offset: 0xB029, size: 0x8, addend: 0x0, symName: __ZNSt3__122__compressed_pair_elemINS_15__tree_end_nodeIPNS_16__tree_node_baseIPvEEEELi0ELb0EE5__getB8ue170006Ev, symObjAddr: 0xC54, symBinAddr: 0x100004D10, symSize: 0x14 }
  - { offsetInCU: 0xB04F, offset: 0xB04F, size: 0x8, addend: 0x0, symName: __ZNSt3__13setIcNS_4lessIcEENS_9allocatorIcEEED2B8ue170006Ev, symObjAddr: 0xC68, symBinAddr: 0x100004D24, symSize: 0x2C }
  - { offsetInCU: 0xB078, offset: 0xB078, size: 0x8, addend: 0x0, symName: __ZNSt3__16__treeIcNS_4lessIcEENS_9allocatorIcEEED1Ev, symObjAddr: 0xC94, symBinAddr: 0x100004D50, symSize: 0x2C }
  - { offsetInCU: 0xB0A4, offset: 0xB0A4, size: 0x8, addend: 0x0, symName: __ZNSt3__16__treeIcNS_4lessIcEENS_9allocatorIcEEED2Ev, symObjAddr: 0xCC0, symBinAddr: 0x100004D7C, symSize: 0x38 }
  - { offsetInCU: 0xB0D0, offset: 0xB0D0, size: 0x8, addend: 0x0, symName: __ZNSt3__16__treeIcNS_4lessIcEENS_9allocatorIcEEE7destroyEPNS_11__tree_nodeIcPvEE, symObjAddr: 0xCF8, symBinAddr: 0x100004DB4, symSize: 0xC0 }
  - { offsetInCU: 0xB124, offset: 0xB124, size: 0x8, addend: 0x0, symName: __ZNKSt3__16__treeIcNS_4lessIcEENS_9allocatorIcEEE6__rootB8ue170006Ev, symObjAddr: 0xDB8, symBinAddr: 0x100004E74, symSize: 0x28 }
  - { offsetInCU: 0xB14A, offset: 0xB14A, size: 0x8, addend: 0x0, symName: __ZNSt3__16__treeIcNS_4lessIcEENS_9allocatorIcEEE12__node_allocB8ue170006Ev, symObjAddr: 0xDE0, symBinAddr: 0x100004E9C, symSize: 0x28 }
  - { offsetInCU: 0xB170, offset: 0xB170, size: 0x8, addend: 0x0, symName: __ZNSt3__116allocator_traitsINS_9allocatorINS_11__tree_nodeIcPvEEEEE7destroyB8ue170006IcvvEEvRS5_PT_, symObjAddr: 0xE08, symBinAddr: 0x100004EC4, symSize: 0x14 }
  - { offsetInCU: 0xB1AB, offset: 0xB1AB, size: 0x8, addend: 0x0, symName: __ZNSt3__122__tree_key_value_typesIcE9__get_ptrB8ue170006ERc, symObjAddr: 0xE1C, symBinAddr: 0x100004ED8, symSize: 0x14 }
  - { offsetInCU: 0xB1CF, offset: 0xB1CF, size: 0x8, addend: 0x0, symName: __ZNSt3__116allocator_traitsINS_9allocatorINS_11__tree_nodeIcPvEEEEE10deallocateB8ue170006ERS5_PS4_m, symObjAddr: 0xE30, symBinAddr: 0x100004EEC, symSize: 0x34 }
  - { offsetInCU: 0xB211, offset: 0xB211, size: 0x8, addend: 0x0, symName: __ZNSt3__117__compressed_pairINS_15__tree_end_nodeIPNS_16__tree_node_baseIPvEEEENS_9allocatorINS_11__tree_nodeIcS3_EEEEE6secondB8ue170006Ev, symObjAddr: 0xE64, symBinAddr: 0x100004F20, symSize: 0x24 }
  - { offsetInCU: 0xB237, offset: 0xB237, size: 0x8, addend: 0x0, symName: __ZNSt3__122__compressed_pair_elemINS_9allocatorINS_11__tree_nodeIcPvEEEELi1ELb1EE5__getB8ue170006Ev, symObjAddr: 0xE88, symBinAddr: 0x100004F44, symSize: 0x14 }
  - { offsetInCU: 0xB25D, offset: 0xB25D, size: 0x8, addend: 0x0, symName: __ZNSt3__19allocatorINS_11__tree_nodeIcPvEEE10deallocateB8ue170006EPS3_m, symObjAddr: 0xE9C, symBinAddr: 0x100004F58, symSize: 0x70 }
  - { offsetInCU: 0xB29F, offset: 0xB29F, size: 0x8, addend: 0x0, symName: __ZNKSt3__16__treeIcNS_4lessIcEENS_9allocatorIcEEE10__end_nodeB8ue170006Ev, symObjAddr: 0xF94, symBinAddr: 0x100005050, symSize: 0x2C }
  - { offsetInCU: 0xB2C5, offset: 0xB2C5, size: 0x8, addend: 0x0, symName: __ZNKSt3__117__compressed_pairINS_15__tree_end_nodeIPNS_16__tree_node_baseIPvEEEENS_9allocatorINS_11__tree_nodeIcS3_EEEEE5firstB8ue170006Ev, symObjAddr: 0xFC0, symBinAddr: 0x10000507C, symSize: 0x24 }
  - { offsetInCU: 0xB2EB, offset: 0xB2EB, size: 0x8, addend: 0x0, symName: __ZNKSt3__122__compressed_pair_elemINS_15__tree_end_nodeIPNS_16__tree_node_baseIPvEEEELi0ELb0EE5__getB8ue170006Ev, symObjAddr: 0xFE4, symBinAddr: 0x1000050A0, symSize: 0x14 }
  - { offsetInCU: 0xB311, offset: 0xB311, size: 0x8, addend: 0x0, symName: __ZNKSt3__112basic_stringIcNS_11char_traitsIcEENS_9allocatorIcEEE9__is_longB8ue170006Ev, symObjAddr: 0xFF8, symBinAddr: 0x1000050B4, symSize: 0x74 }
  - { offsetInCU: 0xB337, offset: 0xB337, size: 0x8, addend: 0x0, symName: __ZNKSt3__112basic_stringIcNS_11char_traitsIcEENS_9allocatorIcEEE15__get_long_sizeB8ue170006Ev, symObjAddr: 0x106C, symBinAddr: 0x100005128, symSize: 0x28 }
  - { offsetInCU: 0xB35D, offset: 0xB35D, size: 0x8, addend: 0x0, symName: __ZNKSt3__112basic_stringIcNS_11char_traitsIcEENS_9allocatorIcEEE16__get_short_sizeB8ue170006Ev, symObjAddr: 0x1094, symBinAddr: 0x100005150, symSize: 0x34 }
  - { offsetInCU: 0xB383, offset: 0xB383, size: 0x8, addend: 0x0, symName: __ZNKSt3__117__compressed_pairINS_12basic_stringIcNS_11char_traitsIcEENS_9allocatorIcEEE5__repES5_E5firstB8ue170006Ev, symObjAddr: 0x10C8, symBinAddr: 0x100005184, symSize: 0x24 }
  - { offsetInCU: 0xB3A9, offset: 0xB3A9, size: 0x8, addend: 0x0, symName: __ZNKSt3__122__compressed_pair_elemINS_12basic_stringIcNS_11char_traitsIcEENS_9allocatorIcEEE5__repELi0ELb0EE5__getB8ue170006Ev, symObjAddr: 0x10EC, symBinAddr: 0x1000051A8, symSize: 0x14 }
  - { offsetInCU: 0xB3CF, offset: 0xB3CF, size: 0x8, addend: 0x0, symName: __ZNSt3__112basic_stringIcNS_11char_traitsIcEENS_9allocatorIcEEE13__get_pointerB8ue170006Ev, symObjAddr: 0x1100, symBinAddr: 0x1000051BC, symSize: 0x54 }
  - { offsetInCU: 0xB3F5, offset: 0xB3F5, size: 0x8, addend: 0x0, symName: __ZNSt3__112basic_stringIcNS_11char_traitsIcEENS_9allocatorIcEEE18__get_long_pointerB8ue170006Ev, symObjAddr: 0x1154, symBinAddr: 0x100005210, symSize: 0x28 }
  - { offsetInCU: 0xB41B, offset: 0xB41B, size: 0x8, addend: 0x0, symName: __ZNSt3__112basic_stringIcNS_11char_traitsIcEENS_9allocatorIcEEE19__get_short_pointerB8ue170006Ev, symObjAddr: 0x117C, symBinAddr: 0x100005238, symSize: 0x28 }
  - { offsetInCU: 0xB441, offset: 0xB441, size: 0x8, addend: 0x0, symName: __ZNSt3__117__compressed_pairINS_12basic_stringIcNS_11char_traitsIcEENS_9allocatorIcEEE5__repES5_E5firstB8ue170006Ev, symObjAddr: 0x11A4, symBinAddr: 0x100005260, symSize: 0x24 }
  - { offsetInCU: 0xB467, offset: 0xB467, size: 0x8, addend: 0x0, symName: __ZNSt3__122__compressed_pair_elemINS_12basic_stringIcNS_11char_traitsIcEENS_9allocatorIcEEE5__repELi0ELb0EE5__getB8ue170006Ev, symObjAddr: 0x11C8, symBinAddr: 0x100005284, symSize: 0x14 }
  - { offsetInCU: 0xB48D, offset: 0xB48D, size: 0x8, addend: 0x0, symName: __ZNSt3__114pointer_traitsIPcE10pointer_toB8ue170006ERc, symObjAddr: 0x11DC, symBinAddr: 0x100005298, symSize: 0x14 }
  - { offsetInCU: 0xB4B0, offset: 0xB4B0, size: 0x8, addend: 0x0, symName: __ZNSt3__16__treeIcNS_4lessIcEENS_9allocatorIcEEE15__insert_uniqueB8ue170006ERKc, symObjAddr: 0x11F0, symBinAddr: 0x1000052AC, symSize: 0x50 }
  - { offsetInCU: 0xB4E5, offset: 0xB4E5, size: 0x8, addend: 0x0, symName: __ZNSt3__14pairINS_21__tree_const_iteratorIcPNS_11__tree_nodeIcPvEElEEbEC1B8ue170006INS_15__tree_iteratorIcS5_lEEbEERKNS0_IT_T0_EE, symObjAddr: 0x1240, symBinAddr: 0x1000052FC, symSize: 0x34 }
  - { offsetInCU: 0xB52E, offset: 0xB52E, size: 0x8, addend: 0x0, symName: __ZNSt3__16__treeIcNS_4lessIcEENS_9allocatorIcEEE25__emplace_unique_key_argsIcJRKcEEENS_4pairINS_15__tree_iteratorIcPNS_11__tree_nodeIcPvEElEEbEERKT_DpOT0_, symObjAddr: 0x1274, symBinAddr: 0x100005330, symSize: 0xF0 }
  - { offsetInCU: 0xB5DA, offset: 0xB5DA, size: 0x8, addend: 0x0, symName: __ZNSt3__122__tree_key_value_typesIcE9__get_keyB8ue170006ERKc, symObjAddr: 0x1364, symBinAddr: 0x100005420, symSize: 0x14 }
  - { offsetInCU: 0xB5FE, offset: 0xB5FE, size: 0x8, addend: 0x0, symName: __ZNSt3__16__treeIcNS_4lessIcEENS_9allocatorIcEEE12__find_equalIcEERPNS_16__tree_node_baseIPvEERPNS_15__tree_end_nodeISA_EERKT_, symObjAddr: 0x1378, symBinAddr: 0x100005434, symSize: 0x184 }
  - { offsetInCU: 0xB66B, offset: 0xB66B, size: 0x8, addend: 0x0, symName: __ZNSt3__16__treeIcNS_4lessIcEENS_9allocatorIcEEE16__construct_nodeIJRKcEEENS_10unique_ptrINS_11__tree_nodeIcPvEENS_22__tree_node_destructorINS3_ISC_EEEEEEDpOT_, symObjAddr: 0x14FC, symBinAddr: 0x1000055B8, symSize: 0x110 }
  - { offsetInCU: 0xB6CC, offset: 0xB6CC, size: 0x8, addend: 0x0, symName: __ZNSt3__16__treeIcNS_4lessIcEENS_9allocatorIcEEE16__insert_node_atEPNS_15__tree_end_nodeIPNS_16__tree_node_baseIPvEEEERSA_SA_, symObjAddr: 0x160C, symBinAddr: 0x1000056C8, symSize: 0xCC }
  - { offsetInCU: 0xB721, offset: 0xB721, size: 0x8, addend: 0x0, symName: __ZNKSt3__110unique_ptrINS_11__tree_nodeIcPvEENS_22__tree_node_destructorINS_9allocatorIS3_EEEEE3getB8ue170006Ev, symObjAddr: 0x16D8, symBinAddr: 0x100005794, symSize: 0x28 }
  - { offsetInCU: 0xB747, offset: 0xB747, size: 0x8, addend: 0x0, symName: __ZNSt3__110unique_ptrINS_11__tree_nodeIcPvEENS_22__tree_node_destructorINS_9allocatorIS3_EEEEE7releaseB8ue170006Ev, symObjAddr: 0x1700, symBinAddr: 0x1000057BC, symSize: 0x44 }
  - { offsetInCU: 0xB77C, offset: 0xB77C, size: 0x8, addend: 0x0, symName: __ZNSt3__110unique_ptrINS_11__tree_nodeIcPvEENS_22__tree_node_destructorINS_9allocatorIS3_EEEEED1B8ue170006Ev, symObjAddr: 0x1744, symBinAddr: 0x100005800, symSize: 0x2C }
  - { offsetInCU: 0xB7A5, offset: 0xB7A5, size: 0x8, addend: 0x0, symName: __ZNSt3__115__tree_iteratorIcPNS_11__tree_nodeIcPvEElEC1B8ue170006ES4_, symObjAddr: 0x1770, symBinAddr: 0x10000582C, symSize: 0x34 }
  - { offsetInCU: 0xB7DD, offset: 0xB7DD, size: 0x8, addend: 0x0, symName: __ZNSt3__14pairINS_15__tree_iteratorIcPNS_11__tree_nodeIcPvEElEEbEC1B8ue170006ERKS6_RKb, symObjAddr: 0x17A4, symBinAddr: 0x100005860, symSize: 0x3C }
  - { offsetInCU: 0xB822, offset: 0xB822, size: 0x8, addend: 0x0, symName: __ZNKSt3__16__treeIcNS_4lessIcEENS_9allocatorIcEEE10__root_ptrB8ue170006Ev, symObjAddr: 0x17E0, symBinAddr: 0x10000589C, symSize: 0x24 }
  - { offsetInCU: 0xB848, offset: 0xB848, size: 0x8, addend: 0x0, symName: __ZNSt3__16__treeIcNS_4lessIcEENS_9allocatorIcEEE10value_compB8ue170006Ev, symObjAddr: 0x1804, symBinAddr: 0x1000058C0, symSize: 0x28 }
  - { offsetInCU: 0xB86E, offset: 0xB86E, size: 0x8, addend: 0x0, symName: __ZNKSt3__14lessIcEclB8ue170006ERKcS3_, symObjAddr: 0x182C, symBinAddr: 0x1000058E8, symSize: 0x34 }
  - { offsetInCU: 0xB8B2, offset: 0xB8B2, size: 0x8, addend: 0x0, symName: __ZNSt3__117__compressed_pairImNS_4lessIcEEE6secondB8ue170006Ev, symObjAddr: 0x1860, symBinAddr: 0x10000591C, symSize: 0x24 }
  - { offsetInCU: 0xB8D8, offset: 0xB8D8, size: 0x8, addend: 0x0, symName: __ZNSt3__122__compressed_pair_elemINS_4lessIcEELi1ELb1EE5__getB8ue170006Ev, symObjAddr: 0x1884, symBinAddr: 0x100005940, symSize: 0x14 }
  - { offsetInCU: 0xB8FE, offset: 0xB8FE, size: 0x8, addend: 0x0, symName: __ZNSt3__116allocator_traitsINS_9allocatorINS_11__tree_nodeIcPvEEEEE8allocateB8ue170006ERS5_m, symObjAddr: 0x1898, symBinAddr: 0x100005954, symSize: 0x2C }
  - { offsetInCU: 0xB931, offset: 0xB931, size: 0x8, addend: 0x0, symName: __ZNSt3__122__tree_node_destructorINS_9allocatorINS_11__tree_nodeIcPvEEEEEC1B8ue170006ERS5_b, symObjAddr: 0x18C4, symBinAddr: 0x100005980, symSize: 0x48 }
  - { offsetInCU: 0xB97D, offset: 0xB97D, size: 0x8, addend: 0x0, symName: __ZNSt3__110unique_ptrINS_11__tree_nodeIcPvEENS_22__tree_node_destructorINS_9allocatorIS3_EEEEEC1B8ue170006ILb1EvEEPS3_NS_16__dependent_typeINS_27__unique_ptr_deleter_sfinaeIS7_EEXT_EE20__good_rval_ref_typeE, symObjAddr: 0x190C, symBinAddr: 0x1000059C8, symSize: 0x3C }
  - { offsetInCU: 0xB9CD, offset: 0xB9CD, size: 0x8, addend: 0x0, symName: __ZNSt3__116allocator_traitsINS_9allocatorINS_11__tree_nodeIcPvEEEEE9constructB8ue170006IcJRKcEvEEvRS5_PT_DpOT0_, symObjAddr: 0x1948, symBinAddr: 0x100005A04, symSize: 0x34 }
  - { offsetInCU: 0xBA24, offset: 0xBA24, size: 0x8, addend: 0x0, symName: __ZNKSt3__110unique_ptrINS_11__tree_nodeIcPvEENS_22__tree_node_destructorINS_9allocatorIS3_EEEEEptB8ue170006Ev, symObjAddr: 0x197C, symBinAddr: 0x100005A38, symSize: 0x28 }
  - { offsetInCU: 0xBA4A, offset: 0xBA4A, size: 0x8, addend: 0x0, symName: __ZNSt3__110unique_ptrINS_11__tree_nodeIcPvEENS_22__tree_node_destructorINS_9allocatorIS3_EEEEE11get_deleterB8ue170006Ev, symObjAddr: 0x19A4, symBinAddr: 0x100005A60, symSize: 0x24 }
  - { offsetInCU: 0xBA70, offset: 0xBA70, size: 0x8, addend: 0x0, symName: __ZNSt3__19allocatorINS_11__tree_nodeIcPvEEE8allocateB8ue170006Em, symObjAddr: 0x19C8, symBinAddr: 0x100005A84, symSize: 0x84 }
  - { offsetInCU: 0xBAAE, offset: 0xBAAE, size: 0x8, addend: 0x0, symName: __ZNSt3__116allocator_traitsINS_9allocatorINS_11__tree_nodeIcPvEEEEE8max_sizeB8ue170006IS5_vEEmRKS5_, symObjAddr: 0x1A4C, symBinAddr: 0x100005B08, symSize: 0x24 }
  - { offsetInCU: 0xBADC, offset: 0xBADC, size: 0x8, addend: 0x0, symName: __ZNKSt3__19allocatorINS_11__tree_nodeIcPvEEE8max_sizeB8ue170006Ev, symObjAddr: 0x1ACC, symBinAddr: 0x100005B88, symSize: 0x14 }
  - { offsetInCU: 0xBB02, offset: 0xBB02, size: 0x8, addend: 0x0, symName: __ZNSt3__122__tree_node_destructorINS_9allocatorINS_11__tree_nodeIcPvEEEEEC2B8ue170006ERS5_b, symObjAddr: 0x1B04, symBinAddr: 0x100005BC0, symSize: 0x38 }
  - { offsetInCU: 0xBB4A, offset: 0xBB4A, size: 0x8, addend: 0x0, symName: __ZNSt3__110unique_ptrINS_11__tree_nodeIcPvEENS_22__tree_node_destructorINS_9allocatorIS3_EEEEEC2B8ue170006ILb1EvEEPS3_NS_16__dependent_typeINS_27__unique_ptr_deleter_sfinaeIS7_EEXT_EE20__good_rval_ref_typeE, symObjAddr: 0x1B3C, symBinAddr: 0x100005BF8, symSize: 0x5C }
  - { offsetInCU: 0xBB9A, offset: 0xBB9A, size: 0x8, addend: 0x0, symName: __ZNSt3__117__compressed_pairIPNS_11__tree_nodeIcPvEENS_22__tree_node_destructorINS_9allocatorIS3_EEEEEC1B8ue170006IRS4_S8_EEOT_OT0_, symObjAddr: 0x1B98, symBinAddr: 0x100005C54, symSize: 0x3C }
  - { offsetInCU: 0xBBF1, offset: 0xBBF1, size: 0x8, addend: 0x0, symName: __ZNSt3__117__compressed_pairIPNS_11__tree_nodeIcPvEENS_22__tree_node_destructorINS_9allocatorIS3_EEEEEC2B8ue170006IRS4_S8_EEOT_OT0_, symObjAddr: 0x1BD4, symBinAddr: 0x100005C90, symSize: 0x48 }
  - { offsetInCU: 0xBC48, offset: 0xBC48, size: 0x8, addend: 0x0, symName: __ZNSt3__122__compressed_pair_elemIPNS_11__tree_nodeIcPvEELi0ELb0EEC2B8ue170006IRS4_vEEOT_, symObjAddr: 0x1C1C, symBinAddr: 0x100005CD8, symSize: 0x24 }
  - { offsetInCU: 0xBC8A, offset: 0xBC8A, size: 0x8, addend: 0x0, symName: __ZNSt3__122__compressed_pair_elemINS_22__tree_node_destructorINS_9allocatorINS_11__tree_nodeIcPvEEEEEELi1ELb0EEC2B8ue170006IS7_vEEOT_, symObjAddr: 0x1C40, symBinAddr: 0x100005CFC, symSize: 0x24 }
  - { offsetInCU: 0xBCCC, offset: 0xBCCC, size: 0x8, addend: 0x0, symName: __ZNSt3__19allocatorINS_11__tree_nodeIcPvEEE9constructB8ue170006IcJRKcEEEvPT_DpOT0_, symObjAddr: 0x1C64, symBinAddr: 0x100005D20, symSize: 0x28 }
  - { offsetInCU: 0xBD22, offset: 0xBD22, size: 0x8, addend: 0x0, symName: __ZNKSt3__117__compressed_pairIPNS_11__tree_nodeIcPvEENS_22__tree_node_destructorINS_9allocatorIS3_EEEEE5firstB8ue170006Ev, symObjAddr: 0x1C8C, symBinAddr: 0x100005D48, symSize: 0x24 }
  - { offsetInCU: 0xBD48, offset: 0xBD48, size: 0x8, addend: 0x0, symName: __ZNKSt3__122__compressed_pair_elemIPNS_11__tree_nodeIcPvEELi0ELb0EE5__getB8ue170006Ev, symObjAddr: 0x1CB0, symBinAddr: 0x100005D6C, symSize: 0x14 }
  - { offsetInCU: 0xBD6E, offset: 0xBD6E, size: 0x8, addend: 0x0, symName: __ZNSt3__117__compressed_pairIPNS_11__tree_nodeIcPvEENS_22__tree_node_destructorINS_9allocatorIS3_EEEEE6secondB8ue170006Ev, symObjAddr: 0x1CC4, symBinAddr: 0x100005D80, symSize: 0x28 }
  - { offsetInCU: 0xBD94, offset: 0xBD94, size: 0x8, addend: 0x0, symName: __ZNSt3__122__compressed_pair_elemINS_22__tree_node_destructorINS_9allocatorINS_11__tree_nodeIcPvEEEEEELi1ELb0EE5__getB8ue170006Ev, symObjAddr: 0x1CEC, symBinAddr: 0x100005DA8, symSize: 0x14 }
  - { offsetInCU: 0xBDBA, offset: 0xBDBA, size: 0x8, addend: 0x0, symName: __ZNSt3__16__treeIcNS_4lessIcEENS_9allocatorIcEEE4sizeB8ue170006Ev, symObjAddr: 0x2040, symBinAddr: 0x1000060FC, symSize: 0x28 }
  - { offsetInCU: 0xBDE0, offset: 0xBDE0, size: 0x8, addend: 0x0, symName: __ZNKSt3__116__tree_node_baseIPvE15__parent_unsafeB8ue170006Ev, symObjAddr: 0x2068, symBinAddr: 0x100006124, symSize: 0x18 }
  - { offsetInCU: 0xBE06, offset: 0xBE06, size: 0x8, addend: 0x0, symName: __ZNSt3__116__tree_node_baseIPvE12__set_parentB8ue170006EPS2_, symObjAddr: 0x2264, symBinAddr: 0x100006320, symSize: 0x20 }
  - { offsetInCU: 0xBE3B, offset: 0xBE3B, size: 0x8, addend: 0x0, symName: __ZNSt3__117__compressed_pairImNS_4lessIcEEE5firstB8ue170006Ev, symObjAddr: 0x2284, symBinAddr: 0x100006340, symSize: 0x24 }
  - { offsetInCU: 0xBE61, offset: 0xBE61, size: 0x8, addend: 0x0, symName: __ZNSt3__122__compressed_pair_elemImLi0ELb0EE5__getB8ue170006Ev, symObjAddr: 0x22A8, symBinAddr: 0x100006364, symSize: 0x14 }
  - { offsetInCU: 0xBE87, offset: 0xBE87, size: 0x8, addend: 0x0, symName: __ZNSt3__117__compressed_pairIPNS_11__tree_nodeIcPvEENS_22__tree_node_destructorINS_9allocatorIS3_EEEEE5firstB8ue170006Ev, symObjAddr: 0x22BC, symBinAddr: 0x100006378, symSize: 0x24 }
  - { offsetInCU: 0xBEAD, offset: 0xBEAD, size: 0x8, addend: 0x0, symName: __ZNSt3__122__compressed_pair_elemIPNS_11__tree_nodeIcPvEELi0ELb0EE5__getB8ue170006Ev, symObjAddr: 0x22E0, symBinAddr: 0x10000639C, symSize: 0x14 }
  - { offsetInCU: 0xBED3, offset: 0xBED3, size: 0x8, addend: 0x0, symName: __ZNSt3__110unique_ptrINS_11__tree_nodeIcPvEENS_22__tree_node_destructorINS_9allocatorIS3_EEEEED2B8ue170006Ev, symObjAddr: 0x22F4, symBinAddr: 0x1000063B0, symSize: 0x30 }
  - { offsetInCU: 0xBEFC, offset: 0xBEFC, size: 0x8, addend: 0x0, symName: __ZNSt3__110unique_ptrINS_11__tree_nodeIcPvEENS_22__tree_node_destructorINS_9allocatorIS3_EEEEE5resetB8ue170006EPS3_, symObjAddr: 0x2324, symBinAddr: 0x1000063E0, symSize: 0x78 }
  - { offsetInCU: 0xBF40, offset: 0xBF40, size: 0x8, addend: 0x0, symName: __ZNSt3__122__tree_node_destructorINS_9allocatorINS_11__tree_nodeIcPvEEEEEclB8ue170006EPS4_, symObjAddr: 0x239C, symBinAddr: 0x100006458, symSize: 0x88 }
  - { offsetInCU: 0xBF75, offset: 0xBF75, size: 0x8, addend: 0x0, symName: __ZNSt3__115__tree_iteratorIcPNS_11__tree_nodeIcPvEElEC2B8ue170006ES4_, symObjAddr: 0x2424, symBinAddr: 0x1000064E0, symSize: 0x20 }
  - { offsetInCU: 0xBFAE, offset: 0xBFAE, size: 0x8, addend: 0x0, symName: __ZNSt3__14pairINS_15__tree_iteratorIcPNS_11__tree_nodeIcPvEElEEbEC2B8ue170006ERKS6_RKb, symObjAddr: 0x2444, symBinAddr: 0x100006500, symSize: 0x38 }
  - { offsetInCU: 0xBFF4, offset: 0xBFF4, size: 0x8, addend: 0x0, symName: __ZNSt3__14pairINS_21__tree_const_iteratorIcPNS_11__tree_nodeIcPvEElEEbEC2B8ue170006INS_15__tree_iteratorIcS5_lEEbEERKNS0_IT_T0_EE, symObjAddr: 0x247C, symBinAddr: 0x100006538, symSize: 0x50 }
  - { offsetInCU: 0xC03D, offset: 0xC03D, size: 0x8, addend: 0x0, symName: __ZNSt3__121__tree_const_iteratorIcPNS_11__tree_nodeIcPvEElEC1B8ue170006ENS_15__tree_iteratorIcS4_lEE, symObjAddr: 0x24CC, symBinAddr: 0x100006588, symSize: 0x34 }
  - { offsetInCU: 0xC075, offset: 0xC075, size: 0x8, addend: 0x0, symName: __ZNSt3__121__tree_const_iteratorIcPNS_11__tree_nodeIcPvEElEC2B8ue170006ENS_15__tree_iteratorIcS4_lEE, symObjAddr: 0x2500, symBinAddr: 0x1000065BC, symSize: 0x20 }
  - { offsetInCU: 0xC0AE, offset: 0xC0AE, size: 0x8, addend: 0x0, symName: __ZNKSt3__16__treeIcNS_4lessIcEENS_9allocatorIcEEE4sizeB8ue170006Ev, symObjAddr: 0x2520, symBinAddr: 0x1000065DC, symSize: 0x28 }
  - { offsetInCU: 0xC0D4, offset: 0xC0D4, size: 0x8, addend: 0x0, symName: __ZNKSt3__117__compressed_pairImNS_4lessIcEEE5firstB8ue170006Ev, symObjAddr: 0x2548, symBinAddr: 0x100006604, symSize: 0x24 }
  - { offsetInCU: 0xC0FA, offset: 0xC0FA, size: 0x8, addend: 0x0, symName: __ZNKSt3__122__compressed_pair_elemImLi0ELb0EE5__getB8ue170006Ev, symObjAddr: 0x256C, symBinAddr: 0x100006628, symSize: 0x14 }
  - { offsetInCU: 0xC120, offset: 0xC120, size: 0x8, addend: 0x0, symName: __ZNSt3__111char_traitsIcE6lengthB8ue170006EPKc, symObjAddr: 0x2774, symBinAddr: 0x100006830, symSize: 0x48 }
  - { offsetInCU: 0xC161, offset: 0xC161, size: 0x8, addend: 0x0, symName: __ZNKSt3__113basic_ostreamIcNS_11char_traitsIcEEE6sentrycvbB8ue170006Ev, symObjAddr: 0x27BC, symBinAddr: 0x100006878, symSize: 0x1C }
  - { offsetInCU: 0xC187, offset: 0xC187, size: 0x8, addend: 0x0, symName: __ZNSt3__119ostreambuf_iteratorIcNS_11char_traitsIcEEEC1B8ue170006ERNS_13basic_ostreamIcS2_EE, symObjAddr: 0x2A20, symBinAddr: 0x100006ADC, symSize: 0x34 }
  - { offsetInCU: 0xC1BE, offset: 0xC1BE, size: 0x8, addend: 0x0, symName: __ZNKSt3__18ios_base5flagsB8ue170006Ev, symObjAddr: 0x2A54, symBinAddr: 0x100006B10, symSize: 0x18 }
  - { offsetInCU: 0xC1E6, offset: 0xC1E6, size: 0x8, addend: 0x0, symName: __ZNKSt3__19basic_iosIcNS_11char_traitsIcEEE4fillB8ue170006Ev, symObjAddr: 0x2A6C, symBinAddr: 0x100006B28, symSize: 0x64 }
  - { offsetInCU: 0xC20E, offset: 0xC20E, size: 0x8, addend: 0x0, symName: __ZNKSt3__119ostreambuf_iteratorIcNS_11char_traitsIcEEE6failedB8ue170006Ev, symObjAddr: 0x2AD0, symBinAddr: 0x100006B8C, symSize: 0x24 }
  - { offsetInCU: 0xC234, offset: 0xC234, size: 0x8, addend: 0x0, symName: __ZNSt3__19basic_iosIcNS_11char_traitsIcEEE8setstateB8ue170006Ej, symObjAddr: 0x2AF4, symBinAddr: 0x100006BB0, symSize: 0x2C }
  - { offsetInCU: 0xC269, offset: 0xC269, size: 0x8, addend: 0x0, symName: __ZNKSt3__18ios_base5widthB8ue170006Ev, symObjAddr: 0x2B20, symBinAddr: 0x100006BDC, symSize: 0x18 }
  - { offsetInCU: 0xC291, offset: 0xC291, size: 0x8, addend: 0x0, symName: __ZNSt3__115basic_streambufIcNS_11char_traitsIcEEE5sputnB8ue170006EPKcl, symObjAddr: 0x2B38, symBinAddr: 0x100006BF4, symSize: 0x3C }
  - { offsetInCU: 0xC2D3, offset: 0xC2D3, size: 0x8, addend: 0x0, symName: __ZNSt3__112basic_stringIcNS_11char_traitsIcEENS_9allocatorIcEEEC1B8ue170006Emc, symObjAddr: 0x2B74, symBinAddr: 0x100006C30, symSize: 0x3C }
  - { offsetInCU: 0xC31A, offset: 0xC31A, size: 0x8, addend: 0x0, symName: __ZNKSt3__112basic_stringIcNS_11char_traitsIcEENS_9allocatorIcEEE4dataB8ue170006Ev, symObjAddr: 0x2BB0, symBinAddr: 0x100006C6C, symSize: 0x28 }
  - { offsetInCU: 0xC340, offset: 0xC340, size: 0x8, addend: 0x0, symName: __ZNSt3__18ios_base5widthB8ue170006El, symObjAddr: 0x2BD8, symBinAddr: 0x100006C94, symSize: 0x2C }
  - { offsetInCU: 0xC386, offset: 0xC386, size: 0x8, addend: 0x0, symName: __ZNSt3__112basic_stringIcNS_11char_traitsIcEENS_9allocatorIcEEEC2B8ue170006Emc, symObjAddr: 0x2C04, symBinAddr: 0x100006CC0, symSize: 0x4C }
  - { offsetInCU: 0xC3D2, offset: 0xC3D2, size: 0x8, addend: 0x0, symName: __ZNSt3__117__compressed_pairINS_12basic_stringIcNS_11char_traitsIcEENS_9allocatorIcEEE5__repES5_EC1B8ue170006INS_18__default_init_tagESA_EEOT_OT0_, symObjAddr: 0x2C50, symBinAddr: 0x100006D0C, symSize: 0x3C }
  - { offsetInCU: 0xC429, offset: 0xC429, size: 0x8, addend: 0x0, symName: __ZNSt3__117__compressed_pairINS_12basic_stringIcNS_11char_traitsIcEENS_9allocatorIcEEE5__repES5_EC2B8ue170006INS_18__default_init_tagESA_EEOT_OT0_, symObjAddr: 0x2C8C, symBinAddr: 0x100006D48, symSize: 0x3C }
  - { offsetInCU: 0xC480, offset: 0xC480, size: 0x8, addend: 0x0, symName: __ZNSt3__122__compressed_pair_elemINS_12basic_stringIcNS_11char_traitsIcEENS_9allocatorIcEEE5__repELi0ELb0EEC2B8ue170006ENS_18__default_init_tagE, symObjAddr: 0x2CC8, symBinAddr: 0x100006D84, symSize: 0x14 }
  - { offsetInCU: 0xC4B5, offset: 0xC4B5, size: 0x8, addend: 0x0, symName: __ZNSt3__122__compressed_pair_elemINS_9allocatorIcEELi1ELb1EEC2B8ue170006ENS_18__default_init_tagE, symObjAddr: 0x2CDC, symBinAddr: 0x100006D98, symSize: 0x2C }
  - { offsetInCU: 0xC4E9, offset: 0xC4E9, size: 0x8, addend: 0x0, symName: __ZNSt3__19allocatorIcEC2B8ue170006Ev, symObjAddr: 0x2D08, symBinAddr: 0x100006DC4, symSize: 0x2C }
  - { offsetInCU: 0xC512, offset: 0xC512, size: 0x8, addend: 0x0, symName: __ZNSt3__116__non_trivial_ifILb1ENS_9allocatorIcEEEC2B8ue170006Ev, symObjAddr: 0x2D34, symBinAddr: 0x100006DF0, symSize: 0x14 }
  - { offsetInCU: 0xC53C, offset: 0xC53C, size: 0x8, addend: 0x0, symName: __ZNKSt3__112basic_stringIcNS_11char_traitsIcEENS_9allocatorIcEEE13__get_pointerB8ue170006Ev, symObjAddr: 0x2D5C, symBinAddr: 0x100006E18, symSize: 0x54 }
  - { offsetInCU: 0xC562, offset: 0xC562, size: 0x8, addend: 0x0, symName: __ZNKSt3__112basic_stringIcNS_11char_traitsIcEENS_9allocatorIcEEE18__get_long_pointerB8ue170006Ev, symObjAddr: 0x2DB0, symBinAddr: 0x100006E6C, symSize: 0x28 }
  - { offsetInCU: 0xC588, offset: 0xC588, size: 0x8, addend: 0x0, symName: __ZNKSt3__112basic_stringIcNS_11char_traitsIcEENS_9allocatorIcEEE19__get_short_pointerB8ue170006Ev, symObjAddr: 0x2DD8, symBinAddr: 0x100006E94, symSize: 0x28 }
  - { offsetInCU: 0xC5AE, offset: 0xC5AE, size: 0x8, addend: 0x0, symName: __ZNSt3__114pointer_traitsIPKcE10pointer_toB8ue170006ERS1_, symObjAddr: 0x2E00, symBinAddr: 0x100006EBC, symSize: 0x14 }
  - { offsetInCU: 0xC5D1, offset: 0xC5D1, size: 0x8, addend: 0x0, symName: __ZNSt3__119ostreambuf_iteratorIcNS_11char_traitsIcEEEC2B8ue170006ERNS_13basic_ostreamIcS2_EE, symObjAddr: 0x2E14, symBinAddr: 0x100006ED0, symSize: 0x68 }
  - { offsetInCU: 0xC608, offset: 0xC608, size: 0x8, addend: 0x0, symName: __ZNKSt3__19basic_iosIcNS_11char_traitsIcEEE5rdbufB8ue170006Ev, symObjAddr: 0x2E7C, symBinAddr: 0x100006F38, symSize: 0x24 }
  - { offsetInCU: 0xC630, offset: 0xC630, size: 0x8, addend: 0x0, symName: __ZNKSt3__18ios_base5rdbufB8ue170006Ev, symObjAddr: 0x2EA0, symBinAddr: 0x100006F5C, symSize: 0x18 }
  - { offsetInCU: 0xC656, offset: 0xC656, size: 0x8, addend: 0x0, symName: __ZNSt3__111char_traitsIcE11eq_int_typeB8ue170006Eii, symObjAddr: 0x2EB8, symBinAddr: 0x100006F74, symSize: 0x28 }
  - { offsetInCU: 0xC689, offset: 0xC689, size: 0x8, addend: 0x0, symName: __ZNSt3__111char_traitsIcE3eofB8ue170006Ev, symObjAddr: 0x2EE0, symBinAddr: 0x100006F9C, symSize: 0x8 }
  - { offsetInCU: 0xC69D, offset: 0xC69D, size: 0x8, addend: 0x0, symName: __ZNKSt3__19basic_iosIcNS_11char_traitsIcEEE5widenB8ue170006Ec, symObjAddr: 0x2EE8, symBinAddr: 0x100006FA4, symSize: 0x8C }
  - { offsetInCU: 0xC701, offset: 0xC701, size: 0x8, addend: 0x0, symName: __ZNKSt3__15ctypeIcE5widenB8ue170006Ec, symObjAddr: 0x2FA0, symBinAddr: 0x10000705C, symSize: 0x38 }
  - { offsetInCU: 0xC736, offset: 0xC736, size: 0x8, addend: 0x0, symName: __ZNSt3__18ios_base8setstateB8ue170006Ej, symObjAddr: 0x2FD8, symBinAddr: 0x100007094, symSize: 0x34 }
  - { offsetInCU: 0xC76D, offset: 0xC76D, size: 0x8, addend: 0x0, symName: __ZNSt3__112basic_stringIcNS_11char_traitsIcEENS_9allocatorIcEEEC2B8ue170006Ev, symObjAddr: 0x3030, symBinAddr: 0x1000070EC, symSize: 0x3C }
  - { offsetInCU: 0xC796, offset: 0xC796, size: 0x8, addend: 0x0, symName: __ZNSt3__112basic_stringIcNS_11char_traitsIcEENS_9allocatorIcEEE14__default_initB8ue170006Ev, symObjAddr: 0x306C, symBinAddr: 0x100007128, symSize: 0xB0 }
  - { offsetInCU: 0xC7E8, offset: 0xC7E8, size: 0x8, addend: 0x0, symName: __ZNSt3__112basic_stringIcNS_11char_traitsIcEENS_9allocatorIcEEE11__recommendB8ue170006Em, symObjAddr: 0x311C, symBinAddr: 0x1000071D8, symSize: 0x9C }
  - { offsetInCU: 0xC81B, offset: 0xC81B, size: 0x8, addend: 0x0, symName: __ZNSt3__116allocator_traitsINS_9allocatorIcEEE8allocateB8ue170006ERS2_m, symObjAddr: 0x31B8, symBinAddr: 0x100007274, symSize: 0x2C }
  - { offsetInCU: 0xC84E, offset: 0xC84E, size: 0x8, addend: 0x0, symName: __ZNSt3__112basic_stringIcNS_11char_traitsIcEENS_9allocatorIcEEE7__allocB8ue170006Ev, symObjAddr: 0x31E4, symBinAddr: 0x1000072A0, symSize: 0x24 }
  - { offsetInCU: 0xC874, offset: 0xC874, size: 0x8, addend: 0x0, symName: __ZNSt3__112basic_stringIcNS_11char_traitsIcEENS_9allocatorIcEEE16__begin_lifetimeB8ue170006EPcm, symObjAddr: 0x3208, symBinAddr: 0x1000072C4, symSize: 0x14 }
  - { offsetInCU: 0xC8A7, offset: 0xC8A7, size: 0x8, addend: 0x0, symName: __ZNSt3__112basic_stringIcNS_11char_traitsIcEENS_9allocatorIcEEE18__set_long_pointerB8ue170006EPc, symObjAddr: 0x321C, symBinAddr: 0x1000072D8, symSize: 0x38 }
  - { offsetInCU: 0xC8DC, offset: 0xC8DC, size: 0x8, addend: 0x0, symName: __ZNSt3__112basic_stringIcNS_11char_traitsIcEENS_9allocatorIcEEE14__set_long_capB8ue170006Em, symObjAddr: 0x3254, symBinAddr: 0x100007310, symSize: 0x70 }
  - { offsetInCU: 0xC911, offset: 0xC911, size: 0x8, addend: 0x0, symName: __ZNSt3__112basic_stringIcNS_11char_traitsIcEENS_9allocatorIcEEE15__set_long_sizeB8ue170006Em, symObjAddr: 0x32C4, symBinAddr: 0x100007380, symSize: 0x38 }
  - { offsetInCU: 0xC946, offset: 0xC946, size: 0x8, addend: 0x0, symName: __ZNSt3__112basic_stringIcNS_11char_traitsIcEENS_9allocatorIcEEE10__align_itB8ue170006ILm16EEEmm, symObjAddr: 0x32FC, symBinAddr: 0x1000073B8, symSize: 0x1C }
  - { offsetInCU: 0xC974, offset: 0xC974, size: 0x8, addend: 0x0, symName: __ZNSt3__19allocatorIcE8allocateB8ue170006Em, symObjAddr: 0x3318, symBinAddr: 0x1000073D4, symSize: 0x84 }
  - { offsetInCU: 0xC9B2, offset: 0xC9B2, size: 0x8, addend: 0x0, symName: __ZNSt3__116allocator_traitsINS_9allocatorIcEEE8max_sizeB8ue170006IS2_vEEmRKS2_, symObjAddr: 0x339C, symBinAddr: 0x100007458, symSize: 0x24 }
  - { offsetInCU: 0xC9E0, offset: 0xC9E0, size: 0x8, addend: 0x0, symName: __ZNKSt3__19allocatorIcE8max_sizeB8ue170006Ev, symObjAddr: 0x33C0, symBinAddr: 0x10000747C, symSize: 0x14 }
  - { offsetInCU: 0xCA06, offset: 0xCA06, size: 0x8, addend: 0x0, symName: __ZNSt3__117__compressed_pairINS_12basic_stringIcNS_11char_traitsIcEENS_9allocatorIcEEE5__repES5_E6secondB8ue170006Ev, symObjAddr: 0x33D4, symBinAddr: 0x100007490, symSize: 0x24 }
  - { offsetInCU: 0xCA2C, offset: 0xCA2C, size: 0x8, addend: 0x0, symName: __ZNSt3__122__compressed_pair_elemINS_9allocatorIcEELi1ELb1EE5__getB8ue170006Ev, symObjAddr: 0x33F8, symBinAddr: 0x1000074B4, symSize: 0x14 }
  - { offsetInCU: 0xCADF, offset: 0xCADF, size: 0x8, addend: 0x0, symName: __ZNKSt3__113basic_istreamIcNS_11char_traitsIcEEE6sentrycvbB8ue170006Ev, symObjAddr: 0x340C, symBinAddr: 0x1000074C8, symSize: 0x1C }
  - { offsetInCU: 0xCB05, offset: 0xCB05, size: 0x8, addend: 0x0, symName: __ZNSt3__112basic_stringIcNS_11char_traitsIcEENS_9allocatorIcEEE5clearB8ue170006Ev, symObjAddr: 0x3428, symBinAddr: 0x1000074E4, symSize: 0x78 }
  - { offsetInCU: 0xCB2D, offset: 0xCB2D, size: 0x8, addend: 0x0, symName: __ZNKSt3__112basic_stringIcNS_11char_traitsIcEENS_9allocatorIcEEE8max_sizeB8ue170006Ev, symObjAddr: 0x34A0, symBinAddr: 0x10000755C, symSize: 0xAC }
  - { offsetInCU: 0xCB7F, offset: 0xCB7F, size: 0x8, addend: 0x0, symName: __ZNSt3__114numeric_limitsIlE3maxB8ue170006Ev, symObjAddr: 0x354C, symBinAddr: 0x100007608, symSize: 0x14 }
  - { offsetInCU: 0xCB93, offset: 0xCB93, size: 0x8, addend: 0x0, symName: __ZNSt3__115basic_streambufIcNS_11char_traitsIcEEE5sgetcB8ue170006Ev, symObjAddr: 0x3560, symBinAddr: 0x10000761C, symSize: 0x70 }
  - { offsetInCU: 0xCBB9, offset: 0xCBB9, size: 0x8, addend: 0x0, symName: __ZNSt3__111char_traitsIcE12to_char_typeB8ue170006Ei, symObjAddr: 0x35D0, symBinAddr: 0x10000768C, symSize: 0x18 }
  - { offsetInCU: 0xCBDC, offset: 0xCBDC, size: 0x8, addend: 0x0, symName: __ZNKSt3__15ctypeIcE2isB8ue170006Ejc, symObjAddr: 0x35E8, symBinAddr: 0x1000076A4, symSize: 0x7C }
  - { offsetInCU: 0xCC20, offset: 0xCC20, size: 0x8, addend: 0x0, symName: __ZNSt3__115basic_streambufIcNS_11char_traitsIcEEE6sbumpcB8ue170006Ev, symObjAddr: 0x3664, symBinAddr: 0x100007720, symSize: 0x78 }
  - { offsetInCU: 0xCC46, offset: 0xCC46, size: 0x8, addend: 0x0, symName: __ZNSt3__18ios_base18__setstate_nothrowB8ue170006Ej, symObjAddr: 0x36DC, symBinAddr: 0x100007798, symSize: 0x64 }
  - { offsetInCU: 0xCC7B, offset: 0xCC7B, size: 0x8, addend: 0x0, symName: __ZNKSt3__19basic_iosIcNS_11char_traitsIcEEE10exceptionsB8ue170006Ev, symObjAddr: 0x3740, symBinAddr: 0x1000077FC, symSize: 0x24 }
  - { offsetInCU: 0xCCA1, offset: 0xCCA1, size: 0x8, addend: 0x0, symName: __ZNSt3__111char_traitsIcE6assignB8ue170006ERcRKc, symObjAddr: 0x3764, symBinAddr: 0x100007820, symSize: 0x24 }
  - { offsetInCU: 0xCCD2, offset: 0xCCD2, size: 0x8, addend: 0x0, symName: __ZNSt3__112basic_stringIcNS_11char_traitsIcEENS_9allocatorIcEEE16__set_short_sizeB8ue170006Em, symObjAddr: 0x3788, symBinAddr: 0x100007844, symSize: 0x78 }
  - { offsetInCU: 0xCD07, offset: 0xCD07, size: 0x8, addend: 0x0, symName: __ZNKSt3__112basic_stringIcNS_11char_traitsIcEENS_9allocatorIcEEE7__allocB8ue170006Ev, symObjAddr: 0x3800, symBinAddr: 0x1000078BC, symSize: 0x24 }
  - { offsetInCU: 0xCD2D, offset: 0xCD2D, size: 0x8, addend: 0x0, symName: __ZNSt3__114numeric_limitsImE3maxB8ue170006Ev, symObjAddr: 0x3824, symBinAddr: 0x1000078E0, symSize: 0x14 }
  - { offsetInCU: 0xCD41, offset: 0xCD41, size: 0x8, addend: 0x0, symName: __ZNKSt3__117__compressed_pairINS_12basic_stringIcNS_11char_traitsIcEENS_9allocatorIcEEE5__repES5_E6secondB8ue170006Ev, symObjAddr: 0x3838, symBinAddr: 0x1000078F4, symSize: 0x24 }
  - { offsetInCU: 0xCD67, offset: 0xCD67, size: 0x8, addend: 0x0, symName: __ZNKSt3__122__compressed_pair_elemINS_9allocatorIcEELi1ELb1EE5__getB8ue170006Ev, symObjAddr: 0x385C, symBinAddr: 0x100007918, symSize: 0x14 }
  - { offsetInCU: 0xCD8D, offset: 0xCD8D, size: 0x8, addend: 0x0, symName: __ZNSt3__123__libcpp_numeric_limitsImLb1EE3maxB8ue170006Ev, symObjAddr: 0x3870, symBinAddr: 0x10000792C, symSize: 0x8 }
  - { offsetInCU: 0xCDA1, offset: 0xCDA1, size: 0x8, addend: 0x0, symName: __ZNSt3__123__libcpp_numeric_limitsIlLb1EE3maxB8ue170006Ev, symObjAddr: 0x3878, symBinAddr: 0x100007934, symSize: 0x8 }
  - { offsetInCU: 0xCDB5, offset: 0xCDB5, size: 0x8, addend: 0x0, symName: __ZNSt3__111char_traitsIcE11to_int_typeB8ue170006Ec, symObjAddr: 0x3880, symBinAddr: 0x10000793C, symSize: 0x14 }
  - { offsetInCU: 0xCDD8, offset: 0xCDD8, size: 0x8, addend: 0x0, symName: __Z7isasciii, symObjAddr: 0x3894, symBinAddr: 0x100007950, symSize: 0x24 }
  - { offsetInCU: 0xCE05, offset: 0xCE05, size: 0x8, addend: 0x0, symName: __ZNKSt3__18ios_base10exceptionsB8ue170006Ev, symObjAddr: 0x38B8, symBinAddr: 0x100007974, symSize: 0x18 }
...
